; Function Attrs: mustprogress uwtable
define void @_ZN5arrow4util14LoggerRegistry16GetDefaultLoggerEv(ptr dead_on_unwind noalias writable writeonly sret(%"class.std::shared_ptr") align 8 captures(none) %0) local_unnamed_addr #3 align 2 personality ptr @__gxx_personality_v0 {
  %2 = load atomic i8, ptr @_ZGVZN5arrow4util12_GLOBAL__N_111GetRegistryEvE8instance acquire, align 8
  %3 = icmp eq i8 %2, 0
  br i1 %3, label %4, label %_ZN5arrow4util12_GLOBAL__N_111GetRegistryEv.exit, !prof !33

4:                                                ; preds = %1
  %5 = tail call i32 @__cxa_guard_acquire(ptr nonnull @_ZGVZN5arrow4util12_GLOBAL__N_111GetRegistryEvE8instance) #26
  %.not.i = icmp eq i32 %5, 0
  br i1 %.not.i, label %_ZN5arrow4util12_GLOBAL__N_111GetRegistryEv.exit, label %6

6:                                                ; preds = %4
  invoke fastcc void @_ZSt11make_uniqueIN5arrow4util12_GLOBAL__N_112RegistryImplEJEENSt8__detail9_MakeUniqIT_E15__single_objectEDpOT0_()
          to label %7 unwind label %9

7:                                                ; preds = %6
  %8 = tail call i32 @__cxa_atexit(ptr nonnull @_ZNSt10unique_ptrIN5arrow4util12_GLOBAL__N_112RegistryImplESt14default_deleteIS3_EED2Ev, ptr nonnull @_ZZN5arrow4util12_GLOBAL__N_111GetRegistryEvE8instance, ptr nonnull @__dso_handle) #26
  tail call void @__cxa_guard_release(ptr nonnull @_ZGVZN5arrow4util12_GLOBAL__N_111GetRegistryEvE8instance) #26
  br label %_ZN5arrow4util12_GLOBAL__N_111GetRegistryEv.exit

9:                                                ; preds = %6
  %10 = landingpad { ptr, i32 }
          cleanup
  tail call void @__cxa_guard_abort(ptr nonnull @_ZGVZN5arrow4util12_GLOBAL__N_111GetRegistryEvE8instance) #26
  resume { ptr, i32 } %10

_ZN5arrow4util12_GLOBAL__N_111GetRegistryEv.exit: ; preds = %1, %4, %7
  %11 = load ptr, ptr @_ZZN5arrow4util12_GLOBAL__N_111GetRegistryEvE8instance, align 8, !tbaa !34
  %12 = getelementptr inbounds nuw i8, ptr %11, i64 72
  %13 = tail call noundef i32 @pthread_mutex_lock(ptr noundef nonnull align 8 dereferenceable(40) %12) #26
  %.not.i.i = icmp eq i32 %13, 0
  br i1 %.not.i.i, label %_ZNSt10lock_guardISt5mutexEC2ERS0_.exit, label %14

14:                                               ; preds = %_ZN5arrow4util12_GLOBAL__N_111GetRegistryEv.exit
  tail call void @_ZSt20__throw_system_errori(i32 noundef %13) #27
  unreachable

_ZNSt10lock_guardISt5mutexEC2ERS0_.exit:          ; preds = %_ZN5arrow4util12_GLOBAL__N_111GetRegistryEv.exit
  %15 = getelementptr inbounds nuw i8, ptr %11, i64 56
  %16 = load ptr, ptr %15, align 8, !tbaa !21
  store ptr %16, ptr %0, align 8, !tbaa !21
  %17 = getelementptr inbounds nuw i8, ptr %0, i64 8
  %18 = getelementptr inbounds nuw i8, ptr %11, i64 64
  %19 = load ptr, ptr %18, align 8, !tbaa !26
  store ptr %19, ptr %17, align 8, !tbaa !26
  %.not.i.i.i = icmp eq ptr %19, null
  br i1 %.not.i.i.i, label %_ZNSt10shared_ptrIN5arrow4util6LoggerEEC2ERKS3_.exit, label %20

20:                                               ; preds = %_ZNSt10lock_guardISt5mutexEC2ERS0_.exit
  %21 = getelementptr inbounds nuw i8, ptr %19, i64 8
  %22 = load i8, ptr @__libc_single_threaded, align 1, !tbaa !43
  %.not.i.i.i.i = icmp eq i8 %22, 0
  br i1 %.not.i.i.i.i, label %26, label %23

23:                                               ; preds = %20
  %24 = load i32, ptr %21, align 4, !tbaa !56
  %25 = add nsw i32 %24, 1
  store i32 %25, ptr %21, align 4, !tbaa !56
  br label %_ZNSt10shared_ptrIN5arrow4util6LoggerEEC2ERKS3_.exit

26:                                               ; preds = %20
  %27 = atomicrmw volatile add ptr %21, i32 1 acq_rel, align 4
  br label %_ZNSt10shared_ptrIN5arrow4util6LoggerEEC2ERKS3_.exit

_ZNSt10shared_ptrIN5arrow4util6LoggerEEC2ERKS3_.exit: ; preds = %_ZNSt10lock_guardISt5mutexEC2ERS0_.exit, %23, %26
  %28 = tail call noundef i32 @pthread_mutex_unlock(ptr noundef nonnull align 8 dereferenceable(40) %12) #26
  ret void
}